; Function Attrs: mustprogress nounwind uwtable
define dso_local noundef i32 @_ZN4llvm16MachineFrameInfo27CreateFixedSpillStackObjectEmlb(ptr noundef nonnull align 8 dereferenceable(696) %0, i64 noundef %1, i64 noundef %2, i1 noundef zeroext %3) local_unnamed_addr #2 align 2 {
  %5 = alloca %"struct.llvm::MachineFrameInfo::StackObject", align 8
  %6 = getelementptr inbounds nuw i8, ptr %0, i64 2
  %7 = load i8, ptr %6, align 2
  %8 = trunc i8 %7 to i1
  %9 = load i8, ptr %0, align 8
  %10 = zext nneg i8 %9 to i64
  %11 = shl nuw i64 1, %10
  %12 = select i1 %8, i64 1, i64 %11
  %13 = or i64 %12, %2
  %14 = sub i64 0, %13
  %15 = and i64 %13, %14
  %16 = tail call range(i64 0, 65) i64 @llvm.ctlz.i64(i64 %15, i1 false)
  %17 = trunc nuw nsw i64 %16 to i8
  %18 = sub nsw i8 63, %17
  %19 = getelementptr inbounds nuw i8, ptr %0, i64 1
  %20 = load i8, ptr %19, align 1
  %21 = trunc i8 %20 to i1
  %spec.select.i = tail call i8 @llvm.umin.i8(i8 %18, i8 %9)
  %.sroa.04.0.i = select i1 %21, i8 %18, i8 %spec.select.i
  %22 = getelementptr inbounds nuw i8, ptr %0, i64 8
  %23 = load ptr, ptr %22, align 8
  %24 = zext i1 %3 to i8
  store i64 %2, ptr %5, align 8
  %25 = getelementptr inbounds nuw i8, ptr %5, i64 8
  store i64 %1, ptr %25, align 8
  %26 = getelementptr inbounds nuw i8, ptr %5, i64 16
  store i8 %.sroa.04.0.i, ptr %26, align 8
  %27 = getelementptr inbounds nuw i8, ptr %5, i64 17
  store i8 %24, ptr %27, align 1
  %28 = getelementptr inbounds nuw i8, ptr %5, i64 18
  store i8 1, ptr %28, align 2
  %29 = getelementptr inbounds nuw i8, ptr %5, i64 19
  store i8 0, ptr %29, align 1
  %30 = getelementptr inbounds nuw i8, ptr %5, i64 20
  store i8 0, ptr %30, align 4
  %31 = getelementptr inbounds nuw i8, ptr %5, i64 24
  call void @llvm.memset.p0.i64(ptr noundef nonnull align 8 dereferenceable(13) %31, i8 0, i64 13, i1 false)
  %32 = call ptr @_ZNSt6vectorIN4llvm16MachineFrameInfo11StackObjectESaIS2_EE14_M_insert_rvalEN9__gnu_cxx17__normal_iteratorIPKS2_S4_EEOS2_(ptr noundef nonnull align 8 dereferenceable(24) %22, ptr %23, ptr noundef nonnull align 8 dereferenceable(37) %5)
  %33 = getelementptr inbounds nuw i8, ptr %0, i64 32
  %34 = load i32, ptr %33, align 8
  %35 = add i32 %34, 1
  store i32 %35, ptr %33, align 8
  %36 = xor i32 %34, -1
  ret i32 %36
}